target datalayout = "e-m:e-p270:32:32-p271:32:32-p272:64:64-i64:64-i128:128-f80:128-n8:16:32:64-S128"
target triple = "x86_64-pc-linux-gnu"

%struct.SDL_GUID = type { [16 x i8] }
%struct.SDL_SteamVirtualGamepadInfo = type { i64, ptr, i16, i16, i32 }

; Function Attrs: nounwind uwtable
define hidden i32 @SDL_GetRealGamepadTypeForID_REAL(i32 noundef %0) #0 {
  %2 = alloca i32, align 4
  %3 = alloca i32, align 4
  %4 = alloca ptr, align 8
  %5 = alloca %struct.SDL_GUID, align 1
  store i32 %0, ptr %2, align 4
  call void @llvm.lifetime.start.p0(i64 4, ptr %3) #8
  store i32 0, ptr %3, align 4
  call void @llvm.lifetime.start.p0(i64 8, ptr %4) #8
  call void @SDL_LockJoysticks_REAL()
  %6 = load i32, ptr %2, align 4
  %7 = call ptr @SDL_GetJoystickVirtualGamepadInfoForID(i32 noundef %6)
  store ptr %7, ptr %4, align 8
  %8 = load ptr, ptr %4, align 8
  %9 = icmp ne ptr %8, null
  br i1 %9, label %10, label %14

10:                                               ; preds = %1
  %11 = load ptr, ptr %4, align 8
  %12 = getelementptr inbounds nuw %struct.SDL_SteamVirtualGamepadInfo, ptr %11, i32 0, i32 4
  %13 = load i32, ptr %12, align 4
  store i32 %13, ptr %3, align 4
  br label %29

14:                                               ; preds = %1
  %15 = load i32, ptr %2, align 4
  %16 = call { i64, i64 } @SDL_GetJoystickGUIDForID_REAL(i32 noundef %15)
  %17 = getelementptr inbounds nuw %struct.SDL_GUID, ptr %5, i32 0, i32 0
  %18 = getelementptr inbounds nuw { i64, i64 }, ptr %17, i32 0, i32 0
  %19 = extractvalue { i64, i64 } %16, 0
  store i64 %19, ptr %18, align 1
  %20 = getelementptr inbounds nuw { i64, i64 }, ptr %17, i32 0, i32 1
  %21 = extractvalue { i64, i64 } %16, 1
  store i64 %21, ptr %20, align 1
  %22 = load i32, ptr %2, align 4
  %23 = call ptr @SDL_GetJoystickNameForID_REAL(i32 noundef %22)
  %24 = getelementptr inbounds nuw { i64, i64 }, ptr %5, i32 0, i32 0
  %25 = load i64, ptr %24, align 1
  %26 = getelementptr inbounds nuw { i64, i64 }, ptr %5, i32 0, i32 1
  %27 = load i64, ptr %26, align 1
  %28 = call i32 @SDL_GetGamepadTypeFromGUID(i64 %25, i64 %27, ptr noundef %23)
  store i32 %28, ptr %3, align 4
  br label %29

29:                                               ; preds = %14, %10
  call void @SDL_UnlockJoysticks_REAL()
  %30 = load i32, ptr %3, align 4
  call void @llvm.lifetime.end.p0(i64 8, ptr %4) #8
  call void @llvm.lifetime.end.p0(i64 4, ptr %3) #8
  ret i32 %30
}