; Function Attrs: nounwind uwtable
define hidden i32 @SDL_GetRealGamepadTypeForID_REAL(i32 noundef %0) local_unnamed_addr #0 {
  tail call void @SDL_LockJoysticks_REAL() #10
  %2 = tail call ptr @SDL_GetJoystickVirtualGamepadInfoForID(i32 noundef %0) #10
  %.not = icmp eq ptr %2, null
  br i1 %.not, label %6, label %3

3:                                                ; preds = %1
  %4 = getelementptr inbounds nuw i8, ptr %2, i64 20
  %5 = load i32, ptr %4, align 4
  br label %12

6:                                                ; preds = %1
  %7 = tail call { i64, i64 } @SDL_GetJoystickGUIDForID_REAL(i32 noundef %0) #10
  %8 = extractvalue { i64, i64 } %7, 0
  %9 = extractvalue { i64, i64 } %7, 1
  %10 = tail call ptr @SDL_GetJoystickNameForID_REAL(i32 noundef %0) #10
  %11 = tail call i32 @SDL_GetGamepadTypeFromGUID(i64 %8, i64 %9, ptr noundef %10) #10
  br label %12

12:                                               ; preds = %6, %3
  %.0 = phi i32 [ %5, %3 ], [ %11, %6 ]
  tail call void @SDL_UnlockJoysticks_REAL() #10
  ret i32 %.0
}